#include <math.h>
#include <stdio.h>
#include <stdlib.h>
#include <string.h>

int main(){
int n,i,j,c;
scanf("%d",&n);
int count=0;
int f[1000][1000];
for(i=0;i<n;i++){
for(j=0;j<n;j++){
scanf("%d",&f[i][j]);
if(f[i][j]==0) count=count+1;}
scanf("\n");}
c=(((count+4)/4)-2)*(((count+4)/4)-2);
printf("%d",c);
return 0;}
